; Function Attrs: nounwind uwtable
define hidden void @zim_SplFileInfo_isReadable(ptr nocapture noundef readonly %0, ptr noundef %1) #0 {
  %3 = alloca %struct.zend_error_handling, align 8
  %4 = getelementptr inbounds i8, ptr %0, i64 32
  %5 = load ptr, ptr %4, align 8
  %6 = getelementptr inbounds i8, ptr %0, i64 44
  %7 = load i32, ptr %6, align 4
  %.not = icmp eq i32 %7, 0
  br i1 %.not, label %.critedge, label %8

8:                                                ; preds = %2
  tail call void @zend_wrong_parameters_none_error() #18
  %9 = load ptr, ptr getelementptr inbounds (%struct._zend_executor_globals, ptr @executor_globals, i64 0, i32 50), align 8
  %10 = icmp ne ptr %9, null
  tail call void @llvm.assume(i1 %10)
  br label %21

.critedge:                                        ; preds = %2
  %11 = getelementptr inbounds i8, ptr %5, i64 -384
  %12 = tail call fastcc i32 @spl_filesystem_object_get_file_name(ptr noundef nonnull %11), !range !4
  %13 = icmp eq i32 %12, -1
  br i1 %13, label %14, label %17

14:                                               ; preds = %.critedge
  %15 = load ptr, ptr getelementptr inbounds (%struct._zend_executor_globals, ptr @executor_globals, i64 0, i32 50), align 8
  %16 = icmp ne ptr %15, null
  tail call void @llvm.assume(i1 %16)
  br label %21

17:                                               ; preds = %.critedge
  %18 = load ptr, ptr @spl_ce_RuntimeException, align 8
  call void @zend_replace_error_handling(i32 noundef 1, ptr noundef %18, ptr noundef nonnull %3) #18
  %19 = getelementptr inbounds i8, ptr %5, i64 -352
  %20 = load ptr, ptr %19, align 8
  call void @php_stat(ptr noundef %20, i32 noundef 10, ptr noundef %1) #18
  call void @zend_restore_error_handling(ptr noundef nonnull %3) #18
  br label %21

21:                                               ; preds = %17, %14, %8
  ret void
}